; Function Attrs: nounwind uwtable
define internal void @zm_globals_ctor_random(ptr nocapture noundef writeonly %0) #0 {
  %2 = getelementptr inbounds i8, ptr %0, i64 28
  store i32 -1, ptr %2, align 4
  %3 = load i64, ptr @php_random_algo_combinedlcg, align 8
  %.not.i = icmp eq i64 %3, 0
  br i1 %.not.i, label %php_random_status_alloc.exit, label %4

4:                                                ; preds = %1
  %5 = tail call noalias ptr @__zend_calloc(i64 noundef 1, i64 noundef %3) #14
  br label %php_random_status_alloc.exit

php_random_status_alloc.exit:                     ; preds = %1, %4
  %6 = phi ptr [ %5, %4 ], [ null, %1 ]
  store ptr %6, ptr %0, align 8
  %7 = getelementptr inbounds i8, ptr %0, i64 8
  store i8 0, ptr %7, align 8
  %8 = load i64, ptr @php_random_algo_mt19937, align 8
  %.not.i5 = icmp eq i64 %8, 0
  br i1 %.not.i5, label %php_random_status_alloc.exit6, label %9

9:                                                ; preds = %php_random_status_alloc.exit
  %10 = tail call noalias ptr @__zend_calloc(i64 noundef 1, i64 noundef %8) #14
  br label %php_random_status_alloc.exit6

php_random_status_alloc.exit6:                    ; preds = %php_random_status_alloc.exit, %9
  %11 = phi ptr [ %10, %9 ], [ null, %php_random_status_alloc.exit ]
  %12 = getelementptr inbounds i8, ptr %0, i64 16
  store ptr %11, ptr %12, align 8
  %13 = getelementptr inbounds i8, ptr %0, i64 24
  store i8 0, ptr %13, align 8
  ret void
}